ccopy_reg
_reconstructor
p1
(csites.apple_genius_bar.task
Task
p2
c__builtin__
object
p3
NtRp4
(dp5
S'proxyPort'
p6
S'80'
p7
sS'storeName'
p8
S'\xe4\xb8\x8a\xe6\xb5\xb7\xe7\x8e\xaf\xe8\xb4\xb8 iapm'
p9
sS'reservType'
p10
S'serviceType_iPhone'
p11
sS'proxyServer'
p12
S''
sS'accounts'
p13
(lp14
(dp15
Vappleid
p16
Vwsndnr@163.com
p17
sVpasswd
p18
VTangshen110
p19
sVgovernmentid
p20
V330702197108020812
p21
sVphonenumber
p22
V13828465075
p23
sasS'taskName'
p24
S'task1'
p25
sb.