ccopy_reg
_reconstructor
p1
(csites.apple_genius_bar.task
Task
p2
c__builtin__
object
p3
NtRp4
(dp5
S'proxyPort'
p6
S'80'
p7
sS'storeName'
p8
S'\xe7\x8e\x8b\xe5\xba\x9c\xe4\xba\x95'
p9
sS'reservType'
p10
S'serviceType_Mac'
p11
sS'proxyServer'
p12
S''
sS'accounts'
p13
(lp14
(dp15
Vappleid
p16
Vzhonghui944oe@163.com
p17
sVpasswd
p18
VQq654123
p19
sVgovernmentid
p20
V421000198604266658
p21
sVphonenumber
p22
V
sasS'taskName'
p23
S'task2'
p24
sb.