ccopy_reg
_reconstructor
p1
(csites.apple_genius_bar.task
Task
p2
c__builtin__
object
p3
NtRp4
(dp5
S'proxyPort'
p6
S''
sS'storeName'
p7
S'\xe4\xb8\x8a\xe6\xb5\xb7\xe7\x8e\xaf\xe8\xb4\xb8 iapm'
p8
sS'reservType'
p9
S'serviceType_iPhone'
p10
sS'proxyServer'
p11
S''
sS'accounts'
p12
(lp13
(dp14
Vappleid
p15
Vwsndnr@163.com
p16
sVpasswd
p17
VTangshen110
p18
sVgovernmentid
p19
V330702197108020812
p20
sVphonenumber
p21
V13828465075
p22
sasS'taskName'
p23
S'task1'
p24
sb.